; Function Attrs: mustprogress nounwind uwtable
define hidden noundef ptr @_ZN6hermes5irgen11ESTreeIRGen27genMemberExpressionPropertyEPNS_6ESTree24MemberExpressionLikeNodeE(ptr noundef nonnull align 8 dereferenceable(200) %this, ptr noundef %Mem) local_unnamed_addr #0 align 2 {
entry:
  %call = tail call noundef zeroext i1 @_ZN6hermes6ESTree11getComputedEPNS0_24MemberExpressionLikeNodeE(ptr noundef %Mem) #15
  %call2 = tail call noundef ptr @_ZN6hermes6ESTree11getPropertyEPNS0_24MemberExpressionLikeNodeE(ptr noundef %Mem) #15
  br i1 %call, label %if.then, label %if.end

if.then:                                          ; preds = %entry
  %call3 = tail call noundef ptr @_ZN6hermes5irgen11ESTreeIRGen13genExpressionEPNS_6ESTree4NodeENS_10IdentifierE(ptr noundef nonnull align 8 dereferenceable(200) %this, ptr noundef %call2, ptr null) #15
  br label %return

if.end:                                           ; preds = %entry
  %kind_.i.i.i.i.i.i.i.i = getelementptr inbounds i8, ptr %call2, i64 16
  %0 = load i32, ptr %kind_.i.i.i.i.i.i.i.i, align 8
  %cmp.i.i.i.i.i.i.i = icmp ne i32 %0, 34
  %tobool.not5 = icmp eq ptr %call2, null
  %tobool.not = or i1 %tobool.not5, %cmp.i.i.i.i.i.i.i
  br i1 %tobool.not, label %if.end8, label %if.then6

if.then6:                                         ; preds = %if.end
  %Builder = getelementptr inbounds i8, ptr %this, i64 8
  %_value = getelementptr inbounds i8, ptr %call2, i64 48
  %1 = load double, ptr %_value, align 8
  %call7 = tail call noundef ptr @_ZN6hermes9IRBuilder16getLiteralNumberEd(ptr noundef nonnull align 8 dereferenceable(40) %Builder, double noundef %1) #15
  br label %return

if.end8:                                          ; preds = %if.end
  %call9 = tail call noundef ptr @_ZN6hermes6ESTree11getPropertyEPNS0_24MemberExpressionLikeNodeE(ptr noundef %Mem) #15
  %_name.i = getelementptr inbounds i8, ptr %call9, i64 48
  %2 = load ptr, ptr %_name.i, align 8
  %Builder13 = getelementptr inbounds i8, ptr %this, i64 8
  %call16 = tail call noundef ptr @_ZN6hermes9IRBuilder16getLiteralStringENS_10IdentifierE(ptr noundef nonnull align 8 dereferenceable(40) %Builder13, ptr %2) #15
  br label %return

return:                                           ; preds = %if.end8, %if.then6, %if.then
  %retval.0 = phi ptr [ %call3, %if.then ], [ %call7, %if.then6 ], [ %call16, %if.end8 ]
  ret ptr %retval.0
}